; Function Attrs: nounwind uwtable
define hidden noundef ptr @jLongObjectToCKULongPtr(ptr noundef %0, ptr noundef %1) local_unnamed_addr #0 {
  %3 = load ptr, ptr %0, align 8
  %4 = getelementptr inbounds i8, ptr %3, i64 48
  %5 = load ptr, ptr %4, align 8
  %6 = tail call ptr %5(ptr noundef nonnull %0, ptr noundef nonnull @.str.11) #15
  %7 = icmp eq ptr %6, null
  br i1 %7, label %p11ThrowOutOfMemoryError.exit, label %8

8:                                                ; preds = %2
  %9 = load ptr, ptr %0, align 8
  %10 = getelementptr inbounds i8, ptr %9, i64 264
  %11 = load ptr, ptr %10, align 8
  %12 = tail call ptr %11(ptr noundef nonnull %0, ptr noundef nonnull %6, ptr noundef nonnull @.str.21, ptr noundef nonnull @.str.22) #15
  %13 = icmp eq ptr %12, null
  br i1 %13, label %p11ThrowOutOfMemoryError.exit, label %14

14:                                               ; preds = %8
  %15 = load ptr, ptr %0, align 8
  %16 = getelementptr inbounds i8, ptr %15, i64 416
  %17 = load ptr, ptr %16, align 8
  %18 = tail call i64 (ptr, ptr, ptr, ...) %17(ptr noundef nonnull %0, ptr noundef %1, ptr noundef nonnull %12) #15
  %19 = tail call noalias dereferenceable_or_null(8) ptr @malloc(i64 noundef 8) #18
  %20 = icmp eq ptr %19, null
  br i1 %20, label %21, label %31

21:                                               ; preds = %14
  %22 = load ptr, ptr %0, align 8
  %23 = getelementptr inbounds i8, ptr %22, i64 48
  %24 = load ptr, ptr %23, align 8
  %25 = tail call ptr %24(ptr noundef nonnull %0, ptr noundef nonnull @.str.5) #15
  %.not.i.i = icmp eq ptr %25, null
  br i1 %.not.i.i, label %p11ThrowOutOfMemoryError.exit, label %26

26:                                               ; preds = %21
  %27 = load ptr, ptr %0, align 8
  %28 = getelementptr inbounds i8, ptr %27, i64 112
  %29 = load ptr, ptr %28, align 8
  %30 = tail call i32 %29(ptr noundef nonnull %0, ptr noundef nonnull %25, ptr noundef null) #15
  br label %p11ThrowOutOfMemoryError.exit

31:                                               ; preds = %14
  store i64 %18, ptr %19, align 8
  br label %p11ThrowOutOfMemoryError.exit

p11ThrowOutOfMemoryError.exit:                    ; preds = %26, %21, %8, %2, %31
  %.0 = phi ptr [ %19, %31 ], [ null, %2 ], [ null, %8 ], [ null, %21 ], [ null, %26 ]
  ret ptr %.0
}